target datalayout = "e-m:e-p270:32:32-p271:32:32-p272:64:64-i64:64-i128:128-f80:128-n8:16:32:64-S128"
target triple = "x86_64-pc-linux-gnu"

%struct.ARKodeMemRec = type { ptr, double, ptr, i32, i32, double, double, ptr, i32, double, ptr, i32, i32, ptr, ptr, i32, ptr, ptr, i32, ptr, ptr, ptr, ptr, ptr, ptr, ptr, ptr, ptr, ptr, ptr, ptr, ptr, ptr, ptr, i32, ptr, ptr, i32, ptr, i32, ptr, ptr, ptr, ptr, ptr, ptr, ptr, ptr, ptr, ptr, ptr, ptr, ptr, ptr, ptr, ptr, ptr, ptr, ptr, ptr, ptr, ptr, ptr, ptr, ptr, ptr, i32, ptr, ptr, ptr, ptr, ptr, ptr, ptr, i32, ptr, ptr, ptr, i32, ptr, ptr, ptr, ptr, ptr, ptr, ptr, i32, i32, i32, i32, double, double, double, double, double, double, double, double, double, double, i32, ptr, i64, i32, i32, i32, i32, i64, i64, i32, i64, i64, i64, i64, i64, i64, i64, double, double, double, double, double, i32, double, double, i32, i32, i32, i32, i32, i32, i32, i32, ptr, i32, ptr, ptr, ptr, ptr, i32, i32, i32 }

@.str = private unnamed_addr constant [115 x i8] c"generated/home/dtcxzyw/WorkSpace/Projects/compilers/llvm-opt-benchmark/bench/sundials/sundials/src/arkode/arkode.c\00", align 1
@.str.1 = private unnamed_addr constant [27 x i8] c"arkode_mem = NULL illegal.\00", align 1
@.str.2 = private unnamed_addr constant [35 x i8] c"Attempt to call before ARKodeInit.\00", align 1
@.str.11 = private unnamed_addr constant [33 x i8] c"Allocation of arkode_mem failed.\00", align 1
@.str.12 = private unnamed_addr constant [65 x i8] c"time-stepping module does not support non-identity mass matrices\00", align 1
@__func__.ARKodeResFtolerance = private unnamed_addr constant [20 x i8] c"ARKodeResFtolerance\00", align 1

; Function Attrs: nounwind uwtable
define i32 @arkAllocVec(ptr noundef %0, ptr noundef %1, ptr noundef %2) #0 {
  %4 = alloca i32, align 4
  %5 = alloca ptr, align 8
  %6 = alloca ptr, align 8
  %7 = alloca ptr, align 8
  store ptr %0, ptr %5, align 8, !tbaa !11
  store ptr %1, ptr %6, align 8, !tbaa !7
  store ptr %2, ptr %7, align 8, !tbaa !89
  %8 = load ptr, ptr %7, align 8, !tbaa !89
  %9 = load ptr, ptr %8, align 8, !tbaa !7
  %10 = icmp eq ptr %9, null
  br i1 %10, label %11, label %36

11:                                               ; preds = %3
  %12 = load ptr, ptr %6, align 8, !tbaa !7
  %13 = call ptr @N_VClone(ptr noundef %12)
  %14 = load ptr, ptr %7, align 8, !tbaa !89
  store ptr %13, ptr %14, align 8, !tbaa !7
  %15 = load ptr, ptr %7, align 8, !tbaa !89
  %16 = load ptr, ptr %15, align 8, !tbaa !7
  %17 = icmp eq ptr %16, null
  br i1 %17, label %18, label %20

18:                                               ; preds = %11
  %19 = load ptr, ptr %5, align 8, !tbaa !11
  call void @arkFreeVectors(ptr noundef %19)
  store i32 0, ptr %4, align 4
  br label %37

20:                                               ; preds = %11
  %21 = load ptr, ptr %5, align 8, !tbaa !11
  %22 = getelementptr inbounds nuw %struct.ARKodeMemRec, ptr %21, i32 0, i32 113
  %23 = load i64, ptr %22, align 8, !tbaa !36
  %24 = load ptr, ptr %5, align 8, !tbaa !11
  %25 = getelementptr inbounds nuw %struct.ARKodeMemRec, ptr %24, i32 0, i32 115
  %26 = load i64, ptr %25, align 8, !tbaa !91
  %27 = add nsw i64 %26, %23
  store i64 %27, ptr %25, align 8, !tbaa !91
  %28 = load ptr, ptr %5, align 8, !tbaa !11
  %29 = getelementptr inbounds nuw %struct.ARKodeMemRec, ptr %28, i32 0, i32 114
  %30 = load i64, ptr %29, align 8, !tbaa !37
  %31 = load ptr, ptr %5, align 8, !tbaa !11
  %32 = getelementptr inbounds nuw %struct.ARKodeMemRec, ptr %31, i32 0, i32 116
  %33 = load i64, ptr %32, align 8, !tbaa !92
  %34 = add nsw i64 %33, %30
  store i64 %34, ptr %32, align 8, !tbaa !92
  br label %35

35:                                               ; preds = %20
  br label %36

36:                                               ; preds = %35, %3
  store i32 1, ptr %4, align 4
  br label %37

37:                                               ; preds = %36, %18
  %38 = load i32, ptr %4, align 4
  ret i32 %38
}

; Function Attrs: nounwind uwtable
define i32 @ARKodeResFtolerance(ptr noundef %0, ptr noundef %1) #0 {
  %3 = alloca i32, align 4
  %4 = alloca ptr, align 8
  %5 = alloca ptr, align 8
  %6 = alloca ptr, align 8
  %7 = alloca i32, align 4
  store ptr %0, ptr %4, align 8, !tbaa !3
  store ptr %1, ptr %5, align 8, !tbaa !3
  call void @llvm.lifetime.start.p0(i64 8, ptr %6) #10
  %8 = load ptr, ptr %4, align 8, !tbaa !3
  %9 = icmp eq ptr %8, null
  br i1 %9, label %10, label %11

10:                                               ; preds = %2
  call void (ptr, i32, i32, ptr, ptr, ptr, ...) @arkProcessError(ptr noundef null, i32 noundef -21, i32 noundef 571, ptr noundef @__func__.ARKodeResFtolerance, ptr noundef @.str, ptr noundef @.str.1)
  store i32 -21, ptr %3, align 4
  store i32 1, ptr %7, align 4
  br label %60

11:                                               ; preds = %2
  %12 = load ptr, ptr %4, align 8, !tbaa !3
  store ptr %12, ptr %6, align 8, !tbaa !11
  %13 = load ptr, ptr %6, align 8, !tbaa !11
  %14 = getelementptr inbounds nuw %struct.ARKodeMemRec, ptr %13, i32 0, i32 66
  %15 = load i32, ptr %14, align 8, !tbaa !94
  %16 = icmp ne i32 %15, 0
  br i1 %16, label %19, label %17

17:                                               ; preds = %11
  %18 = load ptr, ptr %6, align 8, !tbaa !11
  call void (ptr, i32, i32, ptr, ptr, ptr, ...) @arkProcessError(ptr noundef %18, i32 noundef -48, i32 noundef 580, ptr noundef @__func__.ARKodeResFtolerance, ptr noundef @.str, ptr noundef @.str.12)
  store i32 -48, ptr %3, align 4
  store i32 1, ptr %7, align 4
  br label %60

19:                                               ; preds = %11
  %20 = load ptr, ptr %6, align 8, !tbaa !11
  %21 = getelementptr inbounds nuw %struct.ARKodeMemRec, ptr %20, i32 0, i32 127
  %22 = load i32, ptr %21, align 8, !tbaa !13
  %23 = icmp eq i32 %22, 0
  br i1 %23, label %24, label %26

24:                                               ; preds = %19
  %25 = load ptr, ptr %6, align 8, !tbaa !11
  call void (ptr, i32, i32, ptr, ptr, ptr, ...) @arkProcessError(ptr noundef %25, i32 noundef -23, i32 noundef 587, ptr noundef @__func__.ARKodeResFtolerance, ptr noundef @.str, ptr noundef @.str.2)
  store i32 -23, ptr %3, align 4
  store i32 1, ptr %7, align 4
  br label %60

26:                                               ; preds = %19
  %27 = load ptr, ptr %6, align 8, !tbaa !11
  %28 = getelementptr inbounds nuw %struct.ARKodeMemRec, ptr %27, i32 0, i32 74
  %29 = load i32, ptr %28, align 8, !tbaa !55
  %30 = icmp ne i32 %29, 0
  br i1 %30, label %31, label %47

31:                                               ; preds = %26
  %32 = load ptr, ptr %6, align 8, !tbaa !11
  %33 = getelementptr inbounds nuw %struct.ARKodeMemRec, ptr %32, i32 0, i32 73
  store ptr null, ptr %33, align 8, !tbaa !57
  %34 = load ptr, ptr %6, align 8, !tbaa !11
  %35 = load ptr, ptr %6, align 8, !tbaa !11
  %36 = getelementptr inbounds nuw %struct.ARKodeMemRec, ptr %35, i32 0, i32 72
  %37 = load ptr, ptr %36, align 8, !tbaa !56
  %38 = load ptr, ptr %6, align 8, !tbaa !11
  %39 = getelementptr inbounds nuw %struct.ARKodeMemRec, ptr %38, i32 0, i32 73
  %40 = call i32 @arkAllocVec(ptr noundef %34, ptr noundef %37, ptr noundef %39)
  %41 = icmp ne i32 %40, 0
  br i1 %41, label %44, label %42

42:                                               ; preds = %31
  %43 = load ptr, ptr %6, align 8, !tbaa !11
  call void (ptr, i32, i32, ptr, ptr, ptr, ...) @arkProcessError(ptr noundef %43, i32 noundef -20, i32 noundef 598, ptr noundef @__func__.ARKodeResFtolerance, ptr noundef @.str, ptr noundef @.str.11)
  store i32 -22, ptr %3, align 4
  store i32 1, ptr %7, align 4
  br label %60

44:                                               ; preds = %31
  %45 = load ptr, ptr %6, align 8, !tbaa !11
  %46 = getelementptr inbounds nuw %struct.ARKodeMemRec, ptr %45, i32 0, i32 74
  store i32 0, ptr %46, align 8, !tbaa !55
  br label %47

47:                                               ; preds = %44, %26
  %48 = load ptr, ptr %6, align 8, !tbaa !11
  %49 = getelementptr inbounds nuw %struct.ARKodeMemRec, ptr %48, i32 0, i32 4
  store i32 2, ptr %49, align 4, !tbaa !97
  %50 = load ptr, ptr %6, align 8, !tbaa !11
  %51 = getelementptr inbounds nuw %struct.ARKodeMemRec, ptr %50, i32 0, i32 15
  store i32 1, ptr %51, align 8, !tbaa !103
  %52 = load ptr, ptr %5, align 8, !tbaa !3
  %53 = load ptr, ptr %6, align 8, !tbaa !11
  %54 = getelementptr inbounds nuw %struct.ARKodeMemRec, ptr %53, i32 0, i32 16
  store ptr %52, ptr %54, align 8, !tbaa !98
  %55 = load ptr, ptr %6, align 8, !tbaa !11
  %56 = getelementptr inbounds nuw %struct.ARKodeMemRec, ptr %55, i32 0, i32 2
  %57 = load ptr, ptr %56, align 8, !tbaa !93
  %58 = load ptr, ptr %6, align 8, !tbaa !11
  %59 = getelementptr inbounds nuw %struct.ARKodeMemRec, ptr %58, i32 0, i32 17
  store ptr %57, ptr %59, align 8, !tbaa !99
  store i32 0, ptr %3, align 4
  store i32 1, ptr %7, align 4
  br label %60

60:                                               ; preds = %47, %42, %24, %17, %10
  call void @llvm.lifetime.end.p0(i64 8, ptr %6) #10
  %61 = load i32, ptr %3, align 4
  ret i32 %61
}