; Function Attrs: nounwind uwtable
define range(i32 -48, 1) i32 @ARKodeResFtolerance(ptr noundef %0, ptr noundef %1) local_unnamed_addr #0 {
  %3 = icmp eq ptr %0, null
  br i1 %3, label %4, label %5

4:                                                ; preds = %2
  tail call void (ptr, i32, i32, ptr, ptr, ptr, ...) @arkProcessError(ptr noundef null, i32 noundef -21, i32 noundef 571, ptr noundef nonnull @__func__.ARKodeResFtolerance, ptr noundef nonnull @.str, ptr noundef nonnull @.str.1)
  br label %42

5:                                                ; preds = %2
  %6 = getelementptr inbounds nuw i8, ptr %0, i64 512
  %7 = load i32, ptr %6, align 8, !tbaa !96
  %.not = icmp eq i32 %7, 0
  br i1 %.not, label %8, label %9

8:                                                ; preds = %5
  tail call void (ptr, i32, i32, ptr, ptr, ptr, ...) @arkProcessError(ptr noundef nonnull %0, i32 noundef -48, i32 noundef 580, ptr noundef nonnull @__func__.ARKodeResFtolerance, ptr noundef nonnull @.str, ptr noundef nonnull @.str.12)
  br label %42

9:                                                ; preds = %5
  %10 = getelementptr inbounds nuw i8, ptr %0, i64 960
  %11 = load i32, ptr %10, align 8, !tbaa !3
  %12 = icmp eq i32 %11, 0
  br i1 %12, label %13, label %14

13:                                               ; preds = %9
  tail call void (ptr, i32, i32, ptr, ptr, ptr, ...) @arkProcessError(ptr noundef nonnull %0, i32 noundef -23, i32 noundef 587, ptr noundef nonnull @__func__.ARKodeResFtolerance, ptr noundef nonnull @.str, ptr noundef nonnull @.str.2)
  br label %42

14:                                               ; preds = %9
  %15 = getelementptr inbounds nuw i8, ptr %0, i64 576
  %16 = load i32, ptr %15, align 8, !tbaa !55
  %.not20 = icmp eq i32 %16, 0
  br i1 %.not20, label %35, label %17

17:                                               ; preds = %14
  %18 = getelementptr inbounds nuw i8, ptr %0, i64 568
  store ptr null, ptr %18, align 8, !tbaa !57
  %19 = getelementptr inbounds nuw i8, ptr %0, i64 560
  %20 = load ptr, ptr %19, align 8, !tbaa !56
  %21 = tail call ptr @N_VClone(ptr noundef %20) #16
  store ptr %21, ptr %18, align 8, !tbaa !52
  %22 = icmp eq ptr %21, null
  br i1 %22, label %23, label %24

23:                                               ; preds = %17
  tail call void @arkFreeVectors(ptr noundef nonnull %0)
  tail call void (ptr, i32, i32, ptr, ptr, ptr, ...) @arkProcessError(ptr noundef nonnull %0, i32 noundef -20, i32 noundef 598, ptr noundef nonnull @__func__.ARKodeResFtolerance, ptr noundef nonnull @.str, ptr noundef nonnull @.str.11)
  br label %42

24:                                               ; preds = %17
  %25 = getelementptr inbounds nuw i8, ptr %0, i64 856
  %26 = load i64, ptr %25, align 8, !tbaa !31
  %27 = getelementptr inbounds nuw i8, ptr %0, i64 872
  %28 = load i64, ptr %27, align 8, !tbaa !53
  %29 = add nsw i64 %28, %26
  store i64 %29, ptr %27, align 8, !tbaa !53
  %30 = getelementptr inbounds nuw i8, ptr %0, i64 864
  %31 = load i64, ptr %30, align 8, !tbaa !32
  %32 = getelementptr inbounds nuw i8, ptr %0, i64 880
  %33 = load i64, ptr %32, align 8, !tbaa !54
  %34 = add nsw i64 %33, %31
  store i64 %34, ptr %32, align 8, !tbaa !54
  store i32 0, ptr %15, align 8, !tbaa !55
  br label %35

35:                                               ; preds = %24, %14
  %36 = getelementptr inbounds nuw i8, ptr %0, i64 28
  store i32 2, ptr %36, align 4, !tbaa !99
  %37 = getelementptr inbounds nuw i8, ptr %0, i64 104
  store i32 1, ptr %37, align 8, !tbaa !105
  %38 = getelementptr inbounds nuw i8, ptr %0, i64 112
  store ptr %1, ptr %38, align 8, !tbaa !100
  %39 = getelementptr inbounds nuw i8, ptr %0, i64 16
  %40 = load ptr, ptr %39, align 8, !tbaa !95
  %41 = getelementptr inbounds nuw i8, ptr %0, i64 120
  store ptr %40, ptr %41, align 8, !tbaa !101
  br label %42

42:                                               ; preds = %35, %23, %13, %8, %4
  %.0 = phi i32 [ -21, %4 ], [ -23, %13 ], [ 0, %35 ], [ -22, %23 ], [ -48, %8 ]
  ret i32 %.0
}